target datalayout = "e-m:e-p270:32:32-p271:32:32-p272:64:64-i64:64-i128:128-f80:128-n8:16:32:64-S128"
target triple = "x86_64-pc-linux-gnu"

@hf_raknet_client_guid = internal global i32 0, align 4
@hf_raknet_timestamp = internal global i32 0, align 4
@hf_raknet_use_encryption = internal global i32 0, align 4
@hf_raknet_client_proof = internal global i32 0, align 4
@hf_raknet_use_client_key = internal global i32 0, align 4
@hf_raknet_client_identity = internal global i32 0, align 4
@hf_raknet_password = internal global i32 0, align 4

; Function Attrs: null_pointer_is_valid sspstrong uwtable
define internal i32 @raknet_dissect_connection_request(ptr noundef %0, ptr noundef %1, ptr noundef %2, ptr noundef %3) #0 {
  %5 = alloca ptr, align 8
  %6 = alloca ptr, align 8
  %7 = alloca ptr, align 8
  %8 = alloca ptr, align 8
  %9 = alloca i32, align 4
  %10 = alloca i8, align 1
  %11 = alloca i8, align 1
  store ptr %0, ptr %5, align 8
  store ptr %1, ptr %6, align 8
  store ptr %2, ptr %7, align 8
  store ptr %3, ptr %8, align 8
  call void @llvm.lifetime.start.p0(i64 4, ptr %9) #6
  store i32 1, ptr %9, align 4
  call void @llvm.lifetime.start.p0(i64 1, ptr %10) #6
  %12 = load ptr, ptr %7, align 8
  %13 = load i32, ptr @hf_raknet_client_guid, align 4
  %14 = load ptr, ptr %5, align 8
  %15 = load i32, ptr %9, align 4
  %16 = call ptr @proto_tree_add_item(ptr noundef %12, i32 noundef %13, ptr noundef %14, i32 noundef %15, i32 noundef 8, i32 noundef 0)
  %17 = load i32, ptr %9, align 4
  %18 = add i32 %17, 8
  store i32 %18, ptr %9, align 4
  %19 = load ptr, ptr %7, align 8
  %20 = load i32, ptr @hf_raknet_timestamp, align 4
  %21 = load ptr, ptr %5, align 8
  %22 = load i32, ptr %9, align 4
  %23 = call ptr @proto_tree_add_item(ptr noundef %19, i32 noundef %20, ptr noundef %21, i32 noundef %22, i32 noundef 8, i32 noundef 0)
  %24 = load i32, ptr %9, align 4
  %25 = add i32 %24, 8
  store i32 %25, ptr %9, align 4
  %26 = load ptr, ptr %5, align 8
  %27 = load i32, ptr %9, align 4
  %28 = call zeroext i8 @tvb_get_uint8(ptr noundef %26, i32 noundef %27)
  %29 = zext i8 %28 to i32
  %30 = icmp ne i32 %29, 0
  %31 = select i1 %30, i32 1, i32 0
  %32 = icmp ne i32 %31, 0
  %33 = zext i1 %32 to i8
  store i8 %33, ptr %10, align 1
  %34 = load ptr, ptr %7, align 8
  %35 = load i32, ptr @hf_raknet_use_encryption, align 4
  %36 = load ptr, ptr %5, align 8
  %37 = load i32, ptr %9, align 4
  %38 = call ptr @proto_tree_add_item(ptr noundef %34, i32 noundef %35, ptr noundef %36, i32 noundef %37, i32 noundef 1, i32 noundef 0)
  %39 = load i32, ptr %9, align 4
  %40 = add i32 %39, 1
  store i32 %40, ptr %9, align 4
  %41 = load i8, ptr %10, align 1, !range !11, !noundef !12
  %42 = trunc i8 %41 to i1
  br i1 %42, label %43, label %77

43:                                               ; preds = %4
  call void @llvm.lifetime.start.p0(i64 1, ptr %11) #6
  %44 = load ptr, ptr %7, align 8
  %45 = load i32, ptr @hf_raknet_client_proof, align 4
  %46 = load ptr, ptr %5, align 8
  %47 = load i32, ptr %9, align 4
  %48 = call ptr @proto_tree_add_item(ptr noundef %44, i32 noundef %45, ptr noundef %46, i32 noundef %47, i32 noundef 32, i32 noundef 0)
  %49 = load i32, ptr %9, align 4
  %50 = add i32 %49, 32
  store i32 %50, ptr %9, align 4
  %51 = load ptr, ptr %5, align 8
  %52 = load i32, ptr %9, align 4
  %53 = call zeroext i8 @tvb_get_uint8(ptr noundef %51, i32 noundef %52)
  %54 = zext i8 %53 to i32
  %55 = icmp ne i32 %54, 0
  %56 = select i1 %55, i32 1, i32 0
  %57 = icmp ne i32 %56, 0
  %58 = zext i1 %57 to i8
  store i8 %58, ptr %11, align 1
  %59 = load ptr, ptr %7, align 8
  %60 = load i32, ptr @hf_raknet_use_client_key, align 4
  %61 = load ptr, ptr %5, align 8
  %62 = load i32, ptr %9, align 4
  %63 = call ptr @proto_tree_add_item(ptr noundef %59, i32 noundef %60, ptr noundef %61, i32 noundef %62, i32 noundef 1, i32 noundef 0)
  %64 = load i32, ptr %9, align 4
  %65 = add i32 %64, 1
  store i32 %65, ptr %9, align 4
  %66 = load i8, ptr %11, align 1, !range !11, !noundef !12
  %67 = trunc i8 %66 to i1
  br i1 %67, label %68, label %76

68:                                               ; preds = %43
  %69 = load ptr, ptr %7, align 8
  %70 = load i32, ptr @hf_raknet_client_identity, align 4
  %71 = load ptr, ptr %5, align 8
  %72 = load i32, ptr %9, align 4
  %73 = call ptr @proto_tree_add_item(ptr noundef %69, i32 noundef %70, ptr noundef %71, i32 noundef %72, i32 noundef 160, i32 noundef 0)
  %74 = load i32, ptr %9, align 4
  %75 = add i32 %74, 160
  store i32 %75, ptr %9, align 4
  br label %76

76:                                               ; preds = %68, %43
  call void @llvm.lifetime.end.p0(i64 1, ptr %11) #6
  br label %77

77:                                               ; preds = %76, %4
  %78 = load ptr, ptr %7, align 8
  %79 = load i32, ptr @hf_raknet_password, align 4
  %80 = load ptr, ptr %5, align 8
  %81 = load i32, ptr %9, align 4
  %82 = call ptr @proto_tree_add_item(ptr noundef %78, i32 noundef %79, ptr noundef %80, i32 noundef %81, i32 noundef -1, i32 noundef 0)
  %83 = load ptr, ptr %5, align 8
  %84 = call i32 @tvb_reported_length(ptr noundef %83)
  call void @llvm.lifetime.end.p0(i64 1, ptr %10) #6
  call void @llvm.lifetime.end.p0(i64 4, ptr %9) #6
  ret i32 %84
}