; Function Attrs: null_pointer_is_valid sspstrong uwtable
define internal i32 @raknet_dissect_connection_request(ptr noundef %0, ptr readnone captures(none) %1, ptr noundef %2, ptr readnone captures(none) %3) #0 {
  %5 = load i32, ptr @hf_raknet_client_guid, align 4
  %6 = tail call ptr @proto_tree_add_item(ptr noundef %2, i32 noundef %5, ptr noundef %0, i32 noundef 1, i32 noundef 8, i32 noundef 0)
  %7 = load i32, ptr @hf_raknet_timestamp, align 4
  %8 = tail call ptr @proto_tree_add_item(ptr noundef %2, i32 noundef %7, ptr noundef %0, i32 noundef 9, i32 noundef 8, i32 noundef 0)
  %9 = tail call zeroext i8 @tvb_get_uint8(ptr noundef %0, i32 noundef 17)
  %.not = icmp eq i8 %9, 0
  %10 = load i32, ptr @hf_raknet_use_encryption, align 4
  %11 = tail call ptr @proto_tree_add_item(ptr noundef %2, i32 noundef %10, ptr noundef %0, i32 noundef 17, i32 noundef 1, i32 noundef 0)
  br i1 %.not, label %21, label %12

12:                                               ; preds = %4
  %13 = load i32, ptr @hf_raknet_client_proof, align 4
  %14 = tail call ptr @proto_tree_add_item(ptr noundef %2, i32 noundef %13, ptr noundef %0, i32 noundef 18, i32 noundef 32, i32 noundef 0)
  %15 = tail call zeroext i8 @tvb_get_uint8(ptr noundef %0, i32 noundef 50)
  %.not33 = icmp eq i8 %15, 0
  %16 = load i32, ptr @hf_raknet_use_client_key, align 4
  %17 = tail call ptr @proto_tree_add_item(ptr noundef %2, i32 noundef %16, ptr noundef %0, i32 noundef 50, i32 noundef 1, i32 noundef 0)
  br i1 %.not33, label %21, label %18

18:                                               ; preds = %12
  %19 = load i32, ptr @hf_raknet_client_identity, align 4
  %20 = tail call ptr @proto_tree_add_item(ptr noundef %2, i32 noundef %19, ptr noundef %0, i32 noundef 51, i32 noundef 160, i32 noundef 0)
  br label %21

21:                                               ; preds = %12, %18, %4
  %.0 = phi i32 [ 18, %4 ], [ 211, %18 ], [ 51, %12 ]
  %22 = load i32, ptr @hf_raknet_password, align 4
  %23 = tail call ptr @proto_tree_add_item(ptr noundef %2, i32 noundef %22, ptr noundef %0, i32 noundef %.0, i32 noundef -1, i32 noundef 0)
  %24 = tail call i32 @tvb_reported_length(ptr noundef %0)
  ret i32 %24
}